; Function Attrs: null_pointer_is_valid sspstrong uwtable
define internal i32 @dissect_acse_T_ACRP_aSO_context_name(i1 zeroext %0, ptr noundef %1, i32 noundef %2, ptr noundef %3, ptr noundef %4, i32 noundef %5) #0 {
  %7 = getelementptr inbounds nuw i8, ptr %3, i64 72
  %8 = tail call i32 @dissect_ber_object_identifier_str(i1 noundef zeroext false, ptr noundef %3, ptr noundef %4, ptr noundef %1, i32 noundef %2, i32 noundef %5, ptr noundef nonnull %7)
  %9 = load ptr, ptr %7, align 8
  %10 = icmp ne ptr %9, null
  %11 = getelementptr inbounds nuw i8, ptr %3, i64 61
  %12 = zext i1 %10 to i8
  store i8 %12, ptr %11, align 1
  ret i32 %8
}